target datalayout = "e-m:e-p270:32:32-p271:32:32-p272:64:64-i64:64-i128:128-f80:128-n8:16:32:64-S128"
target triple = "x86_64-pc-linux-gnu"

%"class.std::__shared_count" = type { ptr }
%"class.arrow::Result" = type { %"class.arrow::Status", %"class.arrow::internal::AlignedStorage" }
%"class.arrow::Status" = type { ptr }
%"class.arrow::internal::AlignedStorage" = type { [16 x i8] }
%"struct.arrow::internal::ScalarFromArraySlotImpl" = type { ptr, i64, %"class.std::shared_ptr.20" }
%"class.std::shared_ptr.20" = type { %"class.std::__shared_ptr.21" }
%"class.std::__shared_ptr.21" = type { ptr, %"class.std::__shared_count" }

; Function Attrs: mustprogress nounwind uwtable
define linkonce_odr void @_ZNSt14__shared_countILN9__gnu_cxx12_Lock_policyE2EEC2Ev(ptr noundef nonnull align 8 dereferenceable(8) %0) unnamed_addr #0 comdat align 2 {
  %2 = alloca ptr, align 8
  store ptr %0, ptr %2, align 8, !tbaa !183
  %3 = load ptr, ptr %2, align 8
  %4 = getelementptr inbounds nuw %"class.std::__shared_count", ptr %3, i32 0, i32 0
  store ptr null, ptr %4, align 8, !tbaa !185
  ret void
}

; Function Attrs: mustprogress nounwind uwtable
define linkonce_odr void @_ZNSt12__shared_ptrIN5arrow6ScalarELN9__gnu_cxx12_Lock_policyE2EEC2Ev(ptr noundef nonnull align 8 dereferenceable(16) %0) unnamed_addr #0 comdat align 2 {
  %2 = alloca ptr, align 8
  store ptr %0, ptr %2, align 8, !tbaa !180
  %3 = load ptr, ptr %2, align 8
  %4 = getelementptr inbounds nuw %"class.std::__shared_ptr.21", ptr %3, i32 0, i32 0
  store ptr null, ptr %4, align 8, !tbaa !182
  %5 = getelementptr inbounds nuw %"class.std::__shared_ptr.21", ptr %3, i32 0, i32 1
  call void @_ZNSt14__shared_countILN9__gnu_cxx12_Lock_policyE2EEC2Ev(ptr noundef nonnull align 8 dereferenceable(8) %5) #19
  ret void
}

; Function Attrs: mustprogress nounwind uwtable
define linkonce_odr void @_ZNSt10shared_ptrIN5arrow6ScalarEEC2Ev(ptr noundef nonnull align 8 dereferenceable(16) %0) unnamed_addr #0 comdat align 2 {
  %2 = alloca ptr, align 8
  store ptr %0, ptr %2, align 8, !tbaa !178
  %3 = load ptr, ptr %2, align 8
  call void @_ZNSt12__shared_ptrIN5arrow6ScalarELN9__gnu_cxx12_Lock_policyE2EEC2Ev(ptr noundef nonnull align 8 dereferenceable(16) %3) #19
  ret void
}

; Function Attrs: mustprogress nounwind uwtable
define linkonce_odr void @_ZN5arrow8internal23ScalarFromArraySlotImplC2ERKNS_5ArrayEl(ptr noundef nonnull align 8 dereferenceable(32) %0, ptr noundef nonnull align 8 dereferenceable(32) %1, i64 noundef %2) unnamed_addr #0 comdat align 2 {
  %4 = alloca ptr, align 8
  %5 = alloca ptr, align 8
  %6 = alloca i64, align 8
  store ptr %0, ptr %4, align 8, !tbaa !57
  store ptr %1, ptr %5, align 8, !tbaa !53
  store i64 %2, ptr %6, align 8, !tbaa !43
  %7 = load ptr, ptr %4, align 8
  %8 = getelementptr inbounds nuw %"struct.arrow::internal::ScalarFromArraySlotImpl", ptr %7, i32 0, i32 0
  %9 = load ptr, ptr %5, align 8, !tbaa !53
  store ptr %9, ptr %8, align 8, !tbaa !53
  %10 = getelementptr inbounds nuw %"struct.arrow::internal::ScalarFromArraySlotImpl", ptr %7, i32 0, i32 1
  %11 = load i64, ptr %6, align 8, !tbaa !43
  store i64 %11, ptr %10, align 8, !tbaa !59
  %12 = getelementptr inbounds nuw %"struct.arrow::internal::ScalarFromArraySlotImpl", ptr %7, i32 0, i32 2
  call void @_ZNSt10shared_ptrIN5arrow6ScalarEEC2Ev(ptr noundef nonnull align 8 dereferenceable(16) %12) #19
  ret void
}

; Function Attrs: mustprogress uwtable
define void @_ZNK5arrow5Array9GetScalarEl(ptr dead_on_unwind noalias writable sret(%"class.arrow::Result") align 8 %0, ptr noundef nonnull align 8 dereferenceable(32) %1, i64 noundef %2) #1 align 2 personality ptr @__gxx_personality_v0 {
  %4 = alloca ptr, align 8
  %5 = alloca ptr, align 8
  %6 = alloca i64, align 8
  %7 = alloca %"struct.arrow::internal::ScalarFromArraySlotImpl", align 8
  %8 = alloca ptr, align 8
  %9 = alloca i32, align 4
  store ptr %0, ptr %4, align 8
  store ptr %1, ptr %5, align 8, !tbaa !53
  store i64 %2, ptr %6, align 8, !tbaa !43
  %10 = load ptr, ptr %5, align 8
  call void @llvm.lifetime.start.p0(i64 32, ptr %7) #19
  %11 = load i64, ptr %6, align 8, !tbaa !43
  call void @_ZN5arrow8internal23ScalarFromArraySlotImplC2ERKNS_5ArrayEl(ptr noundef nonnull align 8 dereferenceable(32) %7, ptr noundef nonnull align 8 dereferenceable(32) %10, i64 noundef %11)
  invoke void @_ZNO5arrow8internal23ScalarFromArraySlotImpl6FinishEv(ptr dead_on_unwind writable sret(%"class.arrow::Result") align 8 %0, ptr noundef nonnull align 8 dereferenceable(32) %7)
          to label %12 unwind label %13

12:                                               ; preds = %3
  call void @_ZN5arrow8internal23ScalarFromArraySlotImplD2Ev(ptr noundef nonnull align 8 dereferenceable(32) %7) #19
  call void @llvm.lifetime.end.p0(i64 32, ptr %7) #19
  ret void

13:                                               ; preds = %3
  %14 = landingpad { ptr, i32 }
          cleanup
  %15 = extractvalue { ptr, i32 } %14, 0
  store ptr %15, ptr %8, align 8
  %16 = extractvalue { ptr, i32 } %14, 1
  store i32 %16, ptr %9, align 4
  call void @_ZN5arrow8internal23ScalarFromArraySlotImplD2Ev(ptr noundef nonnull align 8 dereferenceable(32) %7) #19
  call void @llvm.lifetime.end.p0(i64 32, ptr %7) #19
  br label %17

17:                                               ; preds = %13
  %18 = load ptr, ptr %8, align 8
  %19 = load i32, ptr %9, align 4
  %20 = insertvalue { ptr, i32 } poison, ptr %18, 0
  %21 = insertvalue { ptr, i32 } %20, i32 %19, 1
  resume { ptr, i32 } %21
}